; Function Attrs: nounwind uwtable
define noundef nonnull ptr @l_Array_anyMUnsafe_any___at_Lean_Elab_Command_NameGen_mkBaseNameWithSuffix___spec__4___boxed(ptr noundef %0, ptr noundef %1, ptr noundef %2) local_unnamed_addr #1 {
  %4 = getelementptr i8, ptr %1, i64 8
  %.val15 = load i64, ptr %4, align 8, !tbaa !12
  %5 = ptrtoint ptr %1 to i64
  %6 = and i64 %5, 1
  %.not = icmp eq i64 %6, 0
  br i1 %.not, label %7, label %lean_dec.exit10

7:                                                ; preds = %3
  %8 = load i32, ptr %1, align 4, !tbaa !4
  %9 = icmp sgt i32 %8, 1
  br i1 %9, label %10, label %12, !prof !11

10:                                               ; preds = %7
  %11 = add nsw i32 %8, -1
  store i32 %11, ptr %1, align 4, !tbaa !4
  br label %lean_dec.exit10

12:                                               ; preds = %7
  %.not.i = icmp eq i32 %8, 0
  br i1 %.not.i, label %lean_dec.exit10, label %13

13:                                               ; preds = %12
  tail call void @lean_dec_ref_cold(ptr noundef nonnull %1) #4
  br label %lean_dec.exit10

lean_dec.exit10:                                  ; preds = %13, %12, %10, %3
  %14 = getelementptr i8, ptr %2, i64 8
  %.val = load i64, ptr %14, align 8, !tbaa !12
  %15 = ptrtoint ptr %2 to i64
  %16 = and i64 %15, 1
  %.not17 = icmp eq i64 %16, 0
  br i1 %.not17, label %17, label %lean_dec.exit9

17:                                               ; preds = %lean_dec.exit10
  %18 = load i32, ptr %2, align 4, !tbaa !4
  %19 = icmp sgt i32 %18, 1
  br i1 %19, label %20, label %22, !prof !11

20:                                               ; preds = %17
  %21 = add nsw i32 %18, -1
  store i32 %21, ptr %2, align 4, !tbaa !4
  br label %lean_dec.exit9

22:                                               ; preds = %17
  %.not.i11 = icmp eq i32 %18, 0
  br i1 %.not.i11, label %lean_dec.exit9, label %23

23:                                               ; preds = %22
  tail call void @lean_dec_ref_cold(ptr noundef nonnull %2) #4
  br label %lean_dec.exit9

lean_dec.exit9:                                   ; preds = %23, %22, %20, %lean_dec.exit10
  %.not28.i = icmp eq i64 %.val15, %.val
  br i1 %.not28.i, label %l_Array_anyMUnsafe_any___at_Lean_Elab_Command_NameGen_mkBaseNameWithSuffix___spec__4.exit, label %.lr.ph.i

.lr.ph.i:                                         ; preds = %lean_dec.exit9
  %24 = getelementptr inbounds nuw i8, ptr %0, i64 24
  br label %25

25:                                               ; preds = %46, %.lr.ph.i
  %.01329.i = phi i64 [ %.val15, %.lr.ph.i ], [ %47, %46 ]
  %26 = getelementptr inbounds nuw [0 x ptr], ptr %24, i64 0, i64 %.01329.i
  %27 = load ptr, ptr %26, align 8, !tbaa !9
  %28 = ptrtoint ptr %27 to i64
  %29 = and i64 %28, 1
  %.not.i18.i = icmp eq i64 %29, 0
  br i1 %.not.i18.i, label %30, label %lean_obj_tag.exit.i

30:                                               ; preds = %25
  %.val.i.i.i = load i32, ptr %27, align 4, !tbaa !4
  %31 = icmp sgt i32 %.val.i.i.i, 0
  br i1 %31, label %32, label %34, !prof !11

32:                                               ; preds = %30
  %33 = add nuw i32 %.val.i.i.i, 1
  store i32 %33, ptr %27, align 4, !tbaa !4
  br label %lean_obj_tag.exit.thread.i

34:                                               ; preds = %30
  %.not.i.i.i = icmp eq i32 %.val.i.i.i, 0
  br i1 %.not.i.i.i, label %lean_obj_tag.exit.thread.i, label %35

35:                                               ; preds = %34
  tail call void @lean_inc_ref_cold(ptr noundef nonnull %27) #4
  br label %lean_obj_tag.exit.thread.i

lean_obj_tag.exit.i:                              ; preds = %25
  %36 = and i64 %28, 8589934590
  %37 = icmp eq i64 %36, 0
  br i1 %37, label %l_Array_anyMUnsafe_any___at_Lean_Elab_Command_NameGen_mkBaseNameWithSuffix___spec__4.exit, label %46

lean_obj_tag.exit.thread.i:                       ; preds = %35, %34, %32
  %38 = getelementptr i8, ptr %27, i64 4
  %.val.i.i = load i32, ptr %38, align 4
  %39 = icmp ult i32 %.val.i.i, 16777216
  br i1 %39, label %l_Array_anyMUnsafe_any___at_Lean_Elab_Command_NameGen_mkBaseNameWithSuffix___spec__4.exit, label %.thread.i

.thread.i:                                        ; preds = %lean_obj_tag.exit.thread.i
  %40 = load i32, ptr %27, align 4, !tbaa !4
  %41 = icmp sgt i32 %40, 1
  br i1 %41, label %42, label %44, !prof !11

42:                                               ; preds = %.thread.i
  %43 = add nsw i32 %40, -1
  store i32 %43, ptr %27, align 4, !tbaa !4
  br label %46

44:                                               ; preds = %.thread.i
  %.not.i.i = icmp eq i32 %40, 0
  br i1 %.not.i.i, label %46, label %45

45:                                               ; preds = %44
  tail call void @lean_dec_ref_cold(ptr noundef nonnull %27) #4
  br label %46

46:                                               ; preds = %45, %44, %42, %lean_obj_tag.exit.i
  %47 = add i64 %.01329.i, 1
  %.not.i16 = icmp eq i64 %47, %.val
  br i1 %.not.i16, label %l_Array_anyMUnsafe_any___at_Lean_Elab_Command_NameGen_mkBaseNameWithSuffix___spec__4.exit, label %25

l_Array_anyMUnsafe_any___at_Lean_Elab_Command_NameGen_mkBaseNameWithSuffix___spec__4.exit: ; preds = %lean_obj_tag.exit.i, %lean_obj_tag.exit.thread.i, %46, %lean_dec.exit9
  %.2.ph.i = phi i64 [ 1, %lean_dec.exit9 ], [ 3, %lean_obj_tag.exit.thread.i ], [ 1, %46 ], [ 3, %lean_obj_tag.exit.i ]
  %48 = ptrtoint ptr %0 to i64
  %49 = and i64 %48, 1
  %.not18 = icmp eq i64 %49, 0
  br i1 %.not18, label %50, label %lean_dec.exit

50:                                               ; preds = %l_Array_anyMUnsafe_any___at_Lean_Elab_Command_NameGen_mkBaseNameWithSuffix___spec__4.exit
  %51 = load i32, ptr %0, align 4, !tbaa !4
  %52 = icmp sgt i32 %51, 1
  br i1 %52, label %53, label %55, !prof !11

53:                                               ; preds = %50
  %54 = add nsw i32 %51, -1
  store i32 %54, ptr %0, align 4, !tbaa !4
  br label %lean_dec.exit

55:                                               ; preds = %50
  %.not.i13 = icmp eq i32 %51, 0
  br i1 %.not.i13, label %lean_dec.exit, label %56

56:                                               ; preds = %55
  tail call void @lean_dec_ref_cold(ptr noundef nonnull %0) #4
  br label %lean_dec.exit

lean_dec.exit:                                    ; preds = %56, %55, %53, %l_Array_anyMUnsafe_any___at_Lean_Elab_Command_NameGen_mkBaseNameWithSuffix___spec__4.exit
  %57 = inttoptr i64 %.2.ph.i to ptr
  ret ptr %57
}